; Function Attrs: mustprogress uwtable
define internal fastcc void @_ZN7doctest12_GLOBAL__N_115ConsoleReporter12log_contextsEv(ptr noundef nonnull readonly align 8 captures(none) dereferenceable(112) %0) unnamed_addr #8 align 2 {
  %2 = load ptr, ptr getelementptr inbounds nuw (i8, ptr @_ZN7doctest6detail14g_infoContextsE, i64 8), align 8, !tbaa !269
  %3 = load ptr, ptr @_ZN7doctest6detail14g_infoContextsE, align 8, !tbaa !262
  %4 = ptrtoint ptr %2 to i64
  %5 = ptrtoint ptr %3 to i64
  %6 = sub i64 %4, %5
  %7 = lshr exact i64 %6, 3
  %8 = trunc i64 %7 to i32
  %.not = icmp eq i32 %8, 0
  br i1 %.not, label %.loopexit, label %9

9:                                                ; preds = %1
  %10 = getelementptr inbounds nuw i8, ptr %0, i64 8
  %11 = load ptr, ptr %10, align 8, !tbaa !692
  %12 = load i8, ptr @_ZN7doctest6detail11g_no_colorsE, align 1, !tbaa !10, !range !22, !noundef !23
  %13 = trunc nuw i8 %12 to i1
  br i1 %13, label %_ZN7doctest5ColorlsERSoNS0_4EnumE.exit, label %14

14:                                               ; preds = %9
  %15 = tail call i32 @isatty(i32 noundef 1) #49
  %16 = icmp eq i32 %15, 0
  br i1 %16, label %17, label %22

17:                                               ; preds = %14
  %18 = load ptr, ptr @_ZN7doctest6detail4g_csE, align 8, !tbaa !73
  %19 = getelementptr inbounds nuw i8, ptr %18, i64 120
  %20 = load i8, ptr %19, align 8, !tbaa !75, !range !22, !noundef !23
  %21 = icmp eq i8 %20, 0
  br i1 %21, label %_ZN7doctest5ColorlsERSoNS0_4EnumE.exit, label %22

22:                                               ; preds = %17, %14
  %23 = tail call noundef nonnull align 8 dereferenceable(8) ptr @_ZSt16__ostream_insertIcSt11char_traitsIcEERSt13basic_ostreamIT_T0_ES6_PKS3_l(ptr noundef nonnull align 8 dereferenceable(8) %11, ptr noundef nonnull @.str.222, i64 noundef 1)
  %24 = tail call noundef nonnull align 8 dereferenceable(8) ptr @_ZSt16__ostream_insertIcSt11char_traitsIcEERSt13basic_ostreamIT_T0_ES6_PKS3_l(ptr noundef nonnull align 8 dereferenceable(8) %11, ptr noundef nonnull @.str.221, i64 noundef 3)
  br label %_ZN7doctest5ColorlsERSoNS0_4EnumE.exit

_ZN7doctest5ColorlsERSoNS0_4EnumE.exit:           ; preds = %9, %17, %22
  %25 = tail call noundef nonnull align 8 dereferenceable(8) ptr @_ZSt16__ostream_insertIcSt11char_traitsIcEERSt13basic_ostreamIT_T0_ES6_PKS3_l(ptr noundef nonnull align 8 dereferenceable(8) %11, ptr noundef nonnull @.str.341, i64 noundef 10)
  %26 = icmp sgt i32 %8, 0
  br i1 %26, label %.lr.ph.preheader, label %.loopexit

.lr.ph.preheader:                                 ; preds = %_ZN7doctest5ColorlsERSoNS0_4EnumE.exit
  %wide.trip.count = and i64 %7, 2147483647
  br label %.lr.ph

.lr.ph:                                           ; preds = %.lr.ph.preheader, %.lr.ph
  %indvars.iv = phi i64 [ 0, %.lr.ph.preheader ], [ %indvars.iv.next, %.lr.ph ]
  %27 = load ptr, ptr %10, align 8, !tbaa !692
  %28 = icmp eq i64 %indvars.iv, 0
  %29 = select i1 %28, ptr @.str, ptr @.str.342
  %30 = select i1 %28, i64 0, i64 10
  %31 = tail call noundef nonnull align 8 dereferenceable(8) ptr @_ZSt16__ostream_insertIcSt11char_traitsIcEERSt13basic_ostreamIT_T0_ES6_PKS3_l(ptr noundef nonnull align 8 dereferenceable(8) %27, ptr noundef nonnull %29, i64 noundef %30)
  %32 = getelementptr inbounds nuw ptr, ptr %3, i64 %indvars.iv
  %33 = load ptr, ptr %32, align 8, !tbaa !270
  %34 = load ptr, ptr %10, align 8, !tbaa !692
  %35 = load ptr, ptr %33, align 8, !tbaa !31
  %36 = getelementptr inbounds nuw i8, ptr %35, i64 16
  %37 = load ptr, ptr %36, align 8
  tail call void %37(ptr noundef nonnull align 8 dereferenceable(8) %33, ptr noundef %34)
  %38 = load ptr, ptr %10, align 8, !tbaa !692
  %39 = tail call noundef nonnull align 8 dereferenceable(8) ptr @_ZSt16__ostream_insertIcSt11char_traitsIcEERSt13basic_ostreamIT_T0_ES6_PKS3_l(ptr noundef nonnull align 8 dereferenceable(8) %38, ptr noundef nonnull @.str.325, i64 noundef 1)
  %indvars.iv.next = add nuw nsw i64 %indvars.iv, 1
  %exitcond.not = icmp eq i64 %indvars.iv.next, %wide.trip.count
  br i1 %exitcond.not, label %.loopexit, label %.lr.ph, !llvm.loop !703

.loopexit:                                        ; preds = %.lr.ph, %_ZN7doctest5ColorlsERSoNS0_4EnumE.exit, %1
  %40 = getelementptr inbounds nuw i8, ptr %0, i64 8
  %41 = load ptr, ptr %40, align 8, !tbaa !692
  %42 = tail call noundef nonnull align 8 dereferenceable(8) ptr @_ZSt16__ostream_insertIcSt11char_traitsIcEERSt13basic_ostreamIT_T0_ES6_PKS3_l(ptr noundef nonnull align 8 dereferenceable(8) %41, ptr noundef nonnull @.str.325, i64 noundef 1)
  ret void
}